; Function Attrs: nounwind uwtable
define internal noundef zeroext i1 @HIDAPI_DriverPS3ThirdParty_OpenJoystick(ptr noundef readonly captures(none) %0, ptr noundef %1) #0 {
  %3 = getelementptr inbounds nuw i8, ptr %0, i64 112
  %4 = load ptr, ptr %3, align 8
  tail call void @SDL_AssertJoysticksLocked() #10
  %5 = getelementptr inbounds nuw i8, ptr %4, i64 8
  store ptr %1, ptr %5, align 8
  %6 = getelementptr inbounds nuw i8, ptr %4, i64 26
  tail call void @llvm.memset.p0.i64(ptr noundef nonnull align 2 dereferenceable(64) %6, i8 0, i64 64, i1 false)
  %7 = getelementptr inbounds nuw i8, ptr %1, i64 112
  store i32 11, ptr %7, align 8
  %8 = getelementptr inbounds nuw i8, ptr %1, i64 68
  store i32 6, ptr %8, align 4
  %9 = getelementptr inbounds nuw i8, ptr %4, i64 17
  %10 = load i8, ptr %9, align 1, !range !3, !noundef !4
  %11 = trunc nuw i8 %10 to i1
  %spec.store.select = select i1 %11, i32 16, i32 6
  store i32 %spec.store.select, ptr %8, align 4
  %12 = getelementptr inbounds nuw i8, ptr %1, i64 96
  store i32 1, ptr %12, align 8
  %13 = getelementptr inbounds nuw i8, ptr %0, i64 32
  %14 = load i16, ptr %13, align 8
  %15 = icmp eq i16 %14, 9571
  br i1 %15, label %16, label %22

16:                                               ; preds = %2
  %17 = getelementptr inbounds nuw i8, ptr %0, i64 34
  %18 = load i16, ptr %17, align 2
  %19 = icmp eq i16 %18, 1397
  br i1 %19, label %20, label %22

20:                                               ; preds = %16
  %21 = getelementptr inbounds nuw i8, ptr %1, i64 228
  store i32 2, ptr %21, align 4
  br label %22

22:                                               ; preds = %20, %16, %2
  ret i1 true
}